target datalayout = "e-m:e-p270:32:32-p271:32:32-p272:64:64-i64:64-i128:128-f80:128-n8:16:32:64-S128"
target triple = "x86_64-pc-linux-gnu"

@committer_ident_explicitly_given = internal global i32 0, align 4
@author_ident_explicitly_given = internal global i32 0, align 4
@.str.10 = private unnamed_addr constant [16 x i8] c"GIT_AUTHOR_NAME\00", align 1
@.str.11 = private unnamed_addr constant [17 x i8] c"GIT_AUTHOR_EMAIL\00", align 1
@.str.12 = private unnamed_addr constant [19 x i8] c"GIT_COMMITTER_NAME\00", align 1
@.str.13 = private unnamed_addr constant [20 x i8] c"GIT_COMMITTER_EMAIL\00", align 1

; Function Attrs: nounwind uwtable
define internal void @set_env_if(ptr noundef %0, ptr noundef %1, ptr noundef %2, i32 noundef %3) #0 {
  %5 = alloca ptr, align 8
  %6 = alloca ptr, align 8
  %7 = alloca ptr, align 8
  %8 = alloca i32, align 4
  store ptr %0, ptr %5, align 8, !tbaa !20
  store ptr %1, ptr %6, align 8, !tbaa !20
  store ptr %2, ptr %7, align 8, !tbaa !25
  store i32 %3, ptr %8, align 4, !tbaa !4
  %9 = load ptr, ptr %7, align 8, !tbaa !25
  %10 = load i32, ptr %9, align 4, !tbaa !4
  %11 = load i32, ptr %8, align 4, !tbaa !4
  %12 = and i32 %10, %11
  %13 = icmp ne i32 %12, 0
  br i1 %13, label %18, label %14

14:                                               ; preds = %4
  %15 = load ptr, ptr %5, align 8, !tbaa !20
  %16 = call ptr @getenv(ptr noundef %15) #10
  %17 = icmp ne ptr %16, null
  br i1 %17, label %18, label %19

18:                                               ; preds = %14, %4
  br label %27

19:                                               ; preds = %14
  %20 = load ptr, ptr %5, align 8, !tbaa !20
  %21 = load ptr, ptr %6, align 8, !tbaa !20
  %22 = call i32 @setenv(ptr noundef %20, ptr noundef %21, i32 noundef 0) #10
  %23 = load i32, ptr %8, align 4, !tbaa !4
  %24 = load ptr, ptr %7, align 8, !tbaa !25
  %25 = load i32, ptr %24, align 4, !tbaa !4
  %26 = or i32 %25, %23
  store i32 %26, ptr %24, align 4, !tbaa !4
  br label %27

27:                                               ; preds = %19, %18
  ret void
}

; Function Attrs: nounwind uwtable
define dso_local void @prepare_fallback_ident(ptr noundef %0, ptr noundef %1) #0 {
  %3 = alloca ptr, align 8
  %4 = alloca ptr, align 8
  store ptr %0, ptr %3, align 8, !tbaa !20
  store ptr %1, ptr %4, align 8, !tbaa !20
  %5 = load ptr, ptr %3, align 8, !tbaa !20
  call void @set_env_if(ptr noundef @.str.10, ptr noundef %5, ptr noundef @author_ident_explicitly_given, i32 noundef 1)
  %6 = load ptr, ptr %4, align 8, !tbaa !20
  call void @set_env_if(ptr noundef @.str.11, ptr noundef %6, ptr noundef @author_ident_explicitly_given, i32 noundef 2)
  %7 = load ptr, ptr %3, align 8, !tbaa !20
  call void @set_env_if(ptr noundef @.str.12, ptr noundef %7, ptr noundef @committer_ident_explicitly_given, i32 noundef 1)
  %8 = load ptr, ptr %4, align 8, !tbaa !20
  call void @set_env_if(ptr noundef @.str.13, ptr noundef %8, ptr noundef @committer_ident_explicitly_given, i32 noundef 2)
  ret void
}