; Function Attrs: nounwind uwtable
define dso_local void @prepare_fallback_ident(ptr noundef %0, ptr noundef %1) local_unnamed_addr #0 {
  %3 = load i32, ptr @author_ident_explicitly_given, align 4, !tbaa !4
  %4 = and i32 %3, 1
  %.not.i = icmp eq i32 %4, 0
  br i1 %.not.i, label %5, label %set_env_if.exit

5:                                                ; preds = %2
  %6 = tail call ptr @getenv(ptr noundef nonnull @.str.10) #19
  %.not6.i = icmp eq ptr %6, null
  br i1 %.not6.i, label %7, label %set_env_if.exit

7:                                                ; preds = %5
  %8 = tail call i32 @setenv(ptr noundef nonnull @.str.10, ptr noundef %0, i32 noundef 0) #19
  %9 = load i32, ptr @author_ident_explicitly_given, align 4, !tbaa !4
  %10 = or i32 %9, 1
  store i32 %10, ptr @author_ident_explicitly_given, align 4, !tbaa !4
  br label %set_env_if.exit

set_env_if.exit:                                  ; preds = %2, %5, %7
  %11 = phi i32 [ %3, %2 ], [ %3, %5 ], [ %10, %7 ]
  %12 = and i32 %11, 2
  %.not.i4 = icmp eq i32 %12, 0
  br i1 %.not.i4, label %13, label %set_env_if.exit6

13:                                               ; preds = %set_env_if.exit
  %14 = tail call ptr @getenv(ptr noundef nonnull @.str.11) #19
  %.not6.i5 = icmp eq ptr %14, null
  br i1 %.not6.i5, label %15, label %set_env_if.exit6

15:                                               ; preds = %13
  %16 = tail call i32 @setenv(ptr noundef nonnull @.str.11, ptr noundef %1, i32 noundef 0) #19
  %17 = load i32, ptr @author_ident_explicitly_given, align 4, !tbaa !4
  %18 = or i32 %17, 2
  store i32 %18, ptr @author_ident_explicitly_given, align 4, !tbaa !4
  br label %set_env_if.exit6

set_env_if.exit6:                                 ; preds = %set_env_if.exit, %13, %15
  %19 = load i32, ptr @committer_ident_explicitly_given, align 4, !tbaa !4
  %20 = and i32 %19, 1
  %.not.i7 = icmp eq i32 %20, 0
  br i1 %.not.i7, label %21, label %set_env_if.exit9

21:                                               ; preds = %set_env_if.exit6
  %22 = tail call ptr @getenv(ptr noundef nonnull @.str.12) #19
  %.not6.i8 = icmp eq ptr %22, null
  br i1 %.not6.i8, label %23, label %set_env_if.exit9

23:                                               ; preds = %21
  %24 = tail call i32 @setenv(ptr noundef nonnull @.str.12, ptr noundef %0, i32 noundef 0) #19
  %25 = load i32, ptr @committer_ident_explicitly_given, align 4, !tbaa !4
  %26 = or i32 %25, 1
  store i32 %26, ptr @committer_ident_explicitly_given, align 4, !tbaa !4
  br label %set_env_if.exit9

set_env_if.exit9:                                 ; preds = %set_env_if.exit6, %21, %23
  %27 = phi i32 [ %19, %set_env_if.exit6 ], [ %19, %21 ], [ %26, %23 ]
  %28 = and i32 %27, 2
  %.not.i10 = icmp eq i32 %28, 0
  br i1 %.not.i10, label %29, label %set_env_if.exit12

29:                                               ; preds = %set_env_if.exit9
  %30 = tail call ptr @getenv(ptr noundef nonnull @.str.13) #19
  %.not6.i11 = icmp eq ptr %30, null
  br i1 %.not6.i11, label %31, label %set_env_if.exit12

31:                                               ; preds = %29
  %32 = tail call i32 @setenv(ptr noundef nonnull @.str.13, ptr noundef %1, i32 noundef 0) #19
  %33 = load i32, ptr @committer_ident_explicitly_given, align 4, !tbaa !4
  %34 = or i32 %33, 2
  store i32 %34, ptr @committer_ident_explicitly_given, align 4, !tbaa !4
  br label %set_env_if.exit12

set_env_if.exit12:                                ; preds = %set_env_if.exit9, %29, %31
  ret void
}